target datalayout = "e-m:e-p270:32:32-p271:32:32-p272:64:64-i64:64-i128:128-f80:128-n8:16:32:64-S128"
target triple = "x86_64-pc-linux-gnu"

@.str.76 = private unnamed_addr constant [4 x i8] c"RSA\00", align 1

; Function Attrs: nounwind uwtable
define internal i32 @test_pkey_export_cb(ptr noundef %0, ptr noundef %1) #0 {
  %3 = alloca i32, align 4
  %4 = alloca ptr, align 8
  %5 = alloca ptr, align 8
  store ptr %0, ptr %4, align 8, !tbaa !35
  store ptr %1, ptr %5, align 8, !tbaa !38
  %6 = load ptr, ptr %5, align 8, !tbaa !38
  %7 = icmp eq ptr %6, null
  br i1 %7, label %8, label %9

8:                                                ; preds = %2
  store i32 0, ptr %3, align 4
  br label %13

9:                                                ; preds = %2
  %10 = load ptr, ptr %4, align 8, !tbaa !35
  %11 = load ptr, ptr %5, align 8, !tbaa !38
  %12 = call i32 @do_fromdata_key_is_equal(ptr noundef %10, ptr noundef %11, ptr noundef @.str.76)
  store i32 %12, ptr %3, align 4
  br label %13

13:                                               ; preds = %9, %8
  %14 = load i32, ptr %3, align 4
  ret i32 %14
}