; Function Attrs: nounwind uwtable
define internal range(i32 0, 2) i32 @test_pkey_export_cb(ptr noundef %0, ptr noundef %1) #0 {
  %3 = icmp eq ptr %1, null
  br i1 %3, label %6, label %4

4:                                                ; preds = %2
  %5 = tail call fastcc i32 @do_fromdata_key_is_equal(ptr noundef %0, ptr noundef nonnull %1, ptr noundef nonnull @.str.76)
  br label %6

6:                                                ; preds = %2, %4
  %.0 = phi i32 [ %5, %4 ], [ 0, %2 ]
  ret i32 %.0
}